target datalayout = "e-m:e-p270:32:32-p271:32:32-p272:64:64-i64:64-i128:128-f80:128-n8:16:32:64-S128"
target triple = "x86_64-pc-linux-gnu"

%struct.PS_Table_FuncsRec_ = type { ptr, ptr, ptr, ptr }
%struct.PS_TableRec_ = type { ptr, i64, i64, i64, i32, ptr, ptr, ptr, %struct.PS_Table_FuncsRec_ }

; Function Attrs: nounwind uwtable
define internal i32 @ps_table_realloc(ptr noundef %0, i64 noundef %1) #0 {
  %3 = alloca i32, align 4
  %4 = alloca ptr, align 8
  %5 = alloca i64, align 8
  %6 = alloca ptr, align 8
  %7 = alloca ptr, align 8
  %8 = alloca i32, align 4
  %9 = alloca ptr, align 8
  %10 = alloca ptr, align 8
  store ptr %0, ptr %4, align 8
  store i64 %1, ptr %5, align 8
  %11 = load ptr, ptr %4, align 8
  %12 = getelementptr inbounds %struct.PS_TableRec_, ptr %11, i32 0, i32 7
  %13 = load ptr, ptr %12, align 8
  store ptr %13, ptr %6, align 8
  %14 = load ptr, ptr %4, align 8
  %15 = getelementptr inbounds %struct.PS_TableRec_, ptr %14, i32 0, i32 0
  %16 = load ptr, ptr %15, align 8
  store ptr %16, ptr %7, align 8
  %17 = load ptr, ptr %6, align 8
  %18 = load ptr, ptr %4, align 8
  %19 = getelementptr inbounds %struct.PS_TableRec_, ptr %18, i32 0, i32 2
  %20 = load i64, ptr %19, align 8
  %21 = load i64, ptr %5, align 8
  %22 = load ptr, ptr %4, align 8
  %23 = getelementptr inbounds %struct.PS_TableRec_, ptr %22, i32 0, i32 0
  %24 = load ptr, ptr %23, align 8
  %25 = call ptr @ft_mem_realloc(ptr noundef %17, i64 noundef 1, i64 noundef %20, i64 noundef %21, ptr noundef %24, ptr noundef %8)
  %26 = load ptr, ptr %4, align 8
  %27 = getelementptr inbounds %struct.PS_TableRec_, ptr %26, i32 0, i32 0
  store ptr %25, ptr %27, align 8
  %28 = load i32, ptr %8, align 4
  %29 = icmp ne i32 %28, 0
  br i1 %29, label %30, label %32

30:                                               ; preds = %2
  %31 = load i32, ptr %8, align 4
  store i32 %31, ptr %3, align 4
  br label %80

32:                                               ; preds = %2
  %33 = load ptr, ptr %7, align 8
  %34 = icmp ne ptr %33, null
  br i1 %34, label %35, label %76

35:                                               ; preds = %32
  %36 = load ptr, ptr %4, align 8
  %37 = getelementptr inbounds %struct.PS_TableRec_, ptr %36, i32 0, i32 0
  %38 = load ptr, ptr %37, align 8
  %39 = load ptr, ptr %7, align 8
  %40 = icmp ne ptr %38, %39
  br i1 %40, label %41, label %76

41:                                               ; preds = %35
  %42 = load ptr, ptr %4, align 8
  %43 = getelementptr inbounds %struct.PS_TableRec_, ptr %42, i32 0, i32 5
  %44 = load ptr, ptr %43, align 8
  store ptr %44, ptr %9, align 8
  %45 = load ptr, ptr %9, align 8
  %46 = load ptr, ptr %4, align 8
  %47 = getelementptr inbounds %struct.PS_TableRec_, ptr %46, i32 0, i32 4
  %48 = load i32, ptr %47, align 8
  %49 = sext i32 %48 to i64
  %50 = getelementptr inbounds ptr, ptr %45, i64 %49
  store ptr %50, ptr %10, align 8
  br label %51

51:                                               ; preds = %72, %41
  %52 = load ptr, ptr %9, align 8
  %53 = load ptr, ptr %10, align 8
  %54 = icmp ult ptr %52, %53
  br i1 %54, label %55, label %75

55:                                               ; preds = %51
  %56 = load ptr, ptr %9, align 8
  %57 = load ptr, ptr %56, align 8
  %58 = icmp ne ptr %57, null
  br i1 %58, label %59, label %71

59:                                               ; preds = %55
  %60 = load ptr, ptr %4, align 8
  %61 = getelementptr inbounds %struct.PS_TableRec_, ptr %60, i32 0, i32 0
  %62 = load ptr, ptr %61, align 8
  %63 = load ptr, ptr %9, align 8
  %64 = load ptr, ptr %63, align 8
  %65 = load ptr, ptr %7, align 8
  %66 = ptrtoint ptr %64 to i64
  %67 = ptrtoint ptr %65 to i64
  %68 = sub i64 %66, %67
  %69 = getelementptr inbounds i8, ptr %62, i64 %68
  %70 = load ptr, ptr %9, align 8
  store ptr %69, ptr %70, align 8
  br label %71

71:                                               ; preds = %59, %55
  br label %72

72:                                               ; preds = %71
  %73 = load ptr, ptr %9, align 8
  %74 = getelementptr inbounds ptr, ptr %73, i32 1
  store ptr %74, ptr %9, align 8
  br label %51, !llvm.loop !39

75:                                               ; preds = %51
  br label %76

76:                                               ; preds = %75, %35, %32
  %77 = load i64, ptr %5, align 8
  %78 = load ptr, ptr %4, align 8
  %79 = getelementptr inbounds %struct.PS_TableRec_, ptr %78, i32 0, i32 2
  store i64 %77, ptr %79, align 8
  store i32 0, ptr %3, align 4
  br label %80

80:                                               ; preds = %76, %30
  %81 = load i32, ptr %3, align 4
  ret i32 %81
}

; Function Attrs: nounwind uwtable
define internal i32 @ps_table_add(ptr noundef %0, i32 noundef %1, ptr noundef %2, i32 noundef %3) #0 {
  %5 = alloca i32, align 4
  %6 = alloca ptr, align 8
  %7 = alloca i32, align 4
  %8 = alloca ptr, align 8
  %9 = alloca i32, align 4
  %10 = alloca i32, align 4
  %11 = alloca i64, align 8
  %12 = alloca i64, align 8
  store ptr %0, ptr %6, align 8
  store i32 %1, ptr %7, align 4
  store ptr %2, ptr %8, align 8
  store i32 %3, ptr %9, align 4
  %13 = load i32, ptr %7, align 4
  %14 = icmp slt i32 %13, 0
  br i1 %14, label %21, label %15

15:                                               ; preds = %4
  %16 = load i32, ptr %7, align 4
  %17 = load ptr, ptr %6, align 8
  %18 = getelementptr inbounds %struct.PS_TableRec_, ptr %17, i32 0, i32 4
  %19 = load i32, ptr %18, align 8
  %20 = icmp sge i32 %16, %19
  br i1 %20, label %21, label %24

21:                                               ; preds = %15, %4
  br label %22

22:                                               ; preds = %21
  br label %23

23:                                               ; preds = %22
  store i32 6, ptr %5, align 4
  br label %138

24:                                               ; preds = %15
  %25 = load ptr, ptr %6, align 8
  %26 = getelementptr inbounds %struct.PS_TableRec_, ptr %25, i32 0, i32 1
  %27 = load i64, ptr %26, align 8
  %28 = load i32, ptr %9, align 4
  %29 = zext i32 %28 to i64
  %30 = add i64 %27, %29
  %31 = load ptr, ptr %6, align 8
  %32 = getelementptr inbounds %struct.PS_TableRec_, ptr %31, i32 0, i32 2
  %33 = load i64, ptr %32, align 8
  %34 = icmp ugt i64 %30, %33
  br i1 %34, label %35, label %93

35:                                               ; preds = %24
  %36 = load ptr, ptr %6, align 8
  %37 = getelementptr inbounds %struct.PS_TableRec_, ptr %36, i32 0, i32 2
  %38 = load i64, ptr %37, align 8
  store i64 %38, ptr %11, align 8
  %39 = load ptr, ptr %8, align 8
  %40 = load ptr, ptr %6, align 8
  %41 = getelementptr inbounds %struct.PS_TableRec_, ptr %40, i32 0, i32 0
  %42 = load ptr, ptr %41, align 8
  %43 = ptrtoint ptr %39 to i64
  %44 = ptrtoint ptr %42 to i64
  %45 = sub i64 %43, %44
  store i64 %45, ptr %12, align 8
  %46 = load i64, ptr %12, align 8
  %47 = icmp slt i64 %46, 0
  br i1 %47, label %54, label %48

48:                                               ; preds = %35
  %49 = load i64, ptr %12, align 8
  %50 = load ptr, ptr %6, align 8
  %51 = getelementptr inbounds %struct.PS_TableRec_, ptr %50, i32 0, i32 2
  %52 = load i64, ptr %51, align 8
  %53 = icmp uge i64 %49, %52
  br i1 %53, label %54, label %55

54:                                               ; preds = %48, %35
  store i64 -1, ptr %12, align 8
  br label %55

55:                                               ; preds = %54, %48
  br label %56

56:                                               ; preds = %65, %55
  %57 = load i64, ptr %11, align 8
  %58 = load ptr, ptr %6, align 8
  %59 = getelementptr inbounds %struct.PS_TableRec_, ptr %58, i32 0, i32 1
  %60 = load i64, ptr %59, align 8
  %61 = load i32, ptr %9, align 4
  %62 = zext i32 %61 to i64
  %63 = add i64 %60, %62
  %64 = icmp ult i64 %57, %63
  br i1 %64, label %65, label %75

65:                                               ; preds = %56
  %66 = load i64, ptr %11, align 8
  %67 = lshr i64 %66, 2
  %68 = add i64 %67, 1
  %69 = load i64, ptr %11, align 8
  %70 = add i64 %69, %68
  store i64 %70, ptr %11, align 8
  %71 = load i64, ptr %11, align 8
  %72 = add i64 %71, 1024
  %73 = sub i64 %72, 1
  %74 = and i64 %73, -1024
  store i64 %74, ptr %11, align 8
  br label %56, !llvm.loop !4

75:                                               ; preds = %56
  %76 = load ptr, ptr %6, align 8
  %77 = load i64, ptr %11, align 8
  %78 = call i32 @ps_table_realloc(ptr noundef %76, i64 noundef %77)
  store i32 %78, ptr %10, align 4
  %79 = load i32, ptr %10, align 4
  %80 = icmp ne i32 %79, 0
  br i1 %80, label %81, label %83

81:                                               ; preds = %75
  %82 = load i32, ptr %10, align 4
  store i32 %82, ptr %5, align 4
  br label %138

83:                                               ; preds = %75
  %84 = load i64, ptr %12, align 8
  %85 = icmp sge i64 %84, 0
  br i1 %85, label %86, label %92

86:                                               ; preds = %83
  %87 = load ptr, ptr %6, align 8
  %88 = getelementptr inbounds %struct.PS_TableRec_, ptr %87, i32 0, i32 0
  %89 = load ptr, ptr %88, align 8
  %90 = load i64, ptr %12, align 8
  %91 = getelementptr inbounds i8, ptr %89, i64 %90
  store ptr %91, ptr %8, align 8
  br label %92

92:                                               ; preds = %86, %83
  br label %93

93:                                               ; preds = %92, %24
  %94 = load ptr, ptr %6, align 8
  %95 = getelementptr inbounds %struct.PS_TableRec_, ptr %94, i32 0, i32 0
  %96 = load ptr, ptr %95, align 8
  %97 = icmp ne ptr %96, null
  br i1 %97, label %98, label %106

98:                                               ; preds = %93
  %99 = load ptr, ptr %6, align 8
  %100 = getelementptr inbounds %struct.PS_TableRec_, ptr %99, i32 0, i32 0
  %101 = load ptr, ptr %100, align 8
  %102 = load ptr, ptr %6, align 8
  %103 = getelementptr inbounds %struct.PS_TableRec_, ptr %102, i32 0, i32 1
  %104 = load i64, ptr %103, align 8
  %105 = getelementptr inbounds i8, ptr %101, i64 %104
  br label %107

106:                                              ; preds = %93
  br label %107

107:                                              ; preds = %106, %98
  %108 = phi ptr [ %105, %98 ], [ null, %106 ]
  %109 = load ptr, ptr %6, align 8
  %110 = getelementptr inbounds %struct.PS_TableRec_, ptr %109, i32 0, i32 5
  %111 = load ptr, ptr %110, align 8
  %112 = load i32, ptr %7, align 4
  %113 = sext i32 %112 to i64
  %114 = getelementptr inbounds ptr, ptr %111, i64 %113
  store ptr %108, ptr %114, align 8
  %115 = load i32, ptr %9, align 4
  %116 = load ptr, ptr %6, align 8
  %117 = getelementptr inbounds %struct.PS_TableRec_, ptr %116, i32 0, i32 6
  %118 = load ptr, ptr %117, align 8
  %119 = load i32, ptr %7, align 4
  %120 = sext i32 %119 to i64
  %121 = getelementptr inbounds i32, ptr %118, i64 %120
  store i32 %115, ptr %121, align 4
  %122 = load ptr, ptr %6, align 8
  %123 = getelementptr inbounds %struct.PS_TableRec_, ptr %122, i32 0, i32 0
  %124 = load ptr, ptr %123, align 8
  %125 = load ptr, ptr %6, align 8
  %126 = getelementptr inbounds %struct.PS_TableRec_, ptr %125, i32 0, i32 1
  %127 = load i64, ptr %126, align 8
  %128 = getelementptr inbounds i8, ptr %124, i64 %127
  %129 = load ptr, ptr %8, align 8
  %130 = load i32, ptr %9, align 4
  %131 = zext i32 %130 to i64
  call void @llvm.memcpy.p0.p0.i64(ptr align 1 %128, ptr align 1 %129, i64 %131, i1 false)
  %132 = load i32, ptr %9, align 4
  %133 = zext i32 %132 to i64
  %134 = load ptr, ptr %6, align 8
  %135 = getelementptr inbounds %struct.PS_TableRec_, ptr %134, i32 0, i32 1
  %136 = load i64, ptr %135, align 8
  %137 = add i64 %136, %133
  store i64 %137, ptr %135, align 8
  store i32 0, ptr %5, align 4
  br label %138

138:                                              ; preds = %107, %81, %23
  %139 = load i32, ptr %5, align 4
  ret i32 %139
}