; Function Attrs: nounwind uwtable
define internal i32 @ps_table_add(ptr noundef captures(none) %0, i32 noundef %1, ptr noundef %2, i32 noundef %3) #0 {
  %5 = alloca i32, align 4
  %6 = icmp slt i32 %1, 0
  br i1 %6, label %71, label %7

7:                                                ; preds = %4
  %8 = getelementptr inbounds nuw i8, ptr %0, i64 32
  %9 = load i32, ptr %8, align 8
  %.not = icmp slt i32 %1, %9
  br i1 %.not, label %10, label %71

10:                                               ; preds = %7
  %11 = getelementptr inbounds nuw i8, ptr %0, i64 8
  %12 = load i64, ptr %11, align 8
  %13 = zext i32 %3 to i64
  %14 = add i64 %12, %13
  %15 = getelementptr inbounds nuw i8, ptr %0, i64 16
  %16 = load i64, ptr %15, align 8
  %17 = icmp ugt i64 %14, %16
  %.pr.pre = load ptr, ptr %0, align 8
  br i1 %17, label %18, label %thread-pre-split

18:                                               ; preds = %10
  %19 = ptrtoint ptr %2 to i64
  %20 = ptrtoint ptr %.pr.pre to i64
  %21 = sub i64 %19, %20
  %22 = tail call i64 @llvm.smax.i64(i64 %21, i64 -1)
  br label %23

23:                                               ; preds = %18, %23
  %.03952 = phi i64 [ %16, %18 ], [ %27, %23 ]
  %24 = lshr i64 %.03952, 2
  %25 = add i64 %.03952, 1024
  %26 = add i64 %25, %24
  %27 = and i64 %26, -1024
  %28 = icmp ult i64 %27, %14
  br i1 %28, label %23, label %29, !llvm.loop !6

29:                                               ; preds = %23
  %.not47 = icmp ult i64 %21, %16
  %.0 = select i1 %.not47, i64 %22, i64 -1
  call void @llvm.lifetime.start.p0(i64 4, ptr nonnull %5)
  %30 = getelementptr inbounds nuw i8, ptr %0, i64 56
  %31 = load ptr, ptr %30, align 8
  %32 = call ptr @ft_mem_realloc(ptr noundef %31, i64 noundef 1, i64 noundef %16, i64 noundef %27, ptr noundef %.pr.pre, ptr noundef nonnull %5) #20
  store ptr %32, ptr %0, align 8
  %33 = load i32, ptr %5, align 4
  %.not.i = icmp eq i32 %33, 0
  br i1 %.not.i, label %34, label %ps_table_realloc.exit

34:                                               ; preds = %29
  %.not27.i = icmp eq ptr %.pr.pre, null
  %.not28.i = icmp eq ptr %32, %.pr.pre
  %or.cond.i = select i1 %.not27.i, i1 true, i1 %.not28.i
  br i1 %or.cond.i, label %.loopexit, label %35

35:                                               ; preds = %34
  %36 = getelementptr inbounds nuw i8, ptr %0, i64 40
  %37 = load ptr, ptr %36, align 8
  %38 = load i32, ptr %8, align 8
  %39 = sext i32 %38 to i64
  %40 = getelementptr inbounds ptr, ptr %37, i64 %39
  %41 = icmp sgt i32 %38, 0
  br i1 %41, label %.lr.ph.i, label %.loopexit

.lr.ph.i:                                         ; preds = %35, %48
  %.02330.i = phi ptr [ %49, %48 ], [ %37, %35 ]
  %42 = load ptr, ptr %.02330.i, align 8
  %.not29.i = icmp eq ptr %42, null
  br i1 %.not29.i, label %48, label %43

43:                                               ; preds = %.lr.ph.i
  %44 = load ptr, ptr %0, align 8
  %45 = ptrtoint ptr %42 to i64
  %46 = sub i64 %45, %20
  %47 = getelementptr inbounds i8, ptr %44, i64 %46
  store ptr %47, ptr %.02330.i, align 8
  br label %48

48:                                               ; preds = %43, %.lr.ph.i
  %49 = getelementptr inbounds nuw i8, ptr %.02330.i, i64 8
  %50 = icmp ult ptr %49, %40
  br i1 %50, label %.lr.ph.i, label %.loopexit.loopexit, !llvm.loop !4

ps_table_realloc.exit:                            ; preds = %29
  call void @llvm.lifetime.end.p0(i64 4, ptr nonnull %5)
  br label %71

.loopexit.loopexit:                               ; preds = %48
  %.pr.pre53.pre = load ptr, ptr %0, align 8
  br label %.loopexit

.loopexit:                                        ; preds = %.loopexit.loopexit, %34, %35
  %.pr.pre53 = phi ptr [ %.pr.pre53.pre, %.loopexit.loopexit ], [ %32, %34 ], [ %32, %35 ]
  store i64 %27, ptr %15, align 8
  call void @llvm.lifetime.end.p0(i64 4, ptr nonnull %5)
  %51 = getelementptr inbounds nuw i8, ptr %.pr.pre53, i64 %.0
  %52 = icmp slt i64 %.0, 0
  %spec.select = select i1 %52, ptr %2, ptr %51
  br label %thread-pre-split

thread-pre-split:                                 ; preds = %.loopexit, %10
  %53 = phi ptr [ %.pr.pre, %10 ], [ %.pr.pre53, %.loopexit ]
  %.041 = phi ptr [ %2, %10 ], [ %spec.select, %.loopexit ]
  %.not49 = icmp eq ptr %53, null
  br i1 %.not49, label %57, label %54

54:                                               ; preds = %thread-pre-split
  %55 = load i64, ptr %11, align 8
  %56 = getelementptr inbounds i8, ptr %53, i64 %55
  br label %57

57:                                               ; preds = %thread-pre-split, %54
  %58 = phi ptr [ %56, %54 ], [ null, %thread-pre-split ]
  %59 = getelementptr inbounds nuw i8, ptr %0, i64 40
  %60 = load ptr, ptr %59, align 8
  %61 = zext nneg i32 %1 to i64
  %62 = getelementptr inbounds nuw ptr, ptr %60, i64 %61
  store ptr %58, ptr %62, align 8
  %63 = getelementptr inbounds nuw i8, ptr %0, i64 48
  %64 = load ptr, ptr %63, align 8
  %65 = getelementptr inbounds nuw i32, ptr %64, i64 %61
  store i32 %3, ptr %65, align 4
  %66 = load ptr, ptr %0, align 8
  %67 = load i64, ptr %11, align 8
  %68 = getelementptr inbounds i8, ptr %66, i64 %67
  call void @llvm.memcpy.p0.p0.i64(ptr align 1 %68, ptr align 1 %.041, i64 %13, i1 false)
  %69 = load i64, ptr %11, align 8
  %70 = add i64 %69, %13
  store i64 %70, ptr %11, align 8
  br label %71

71:                                               ; preds = %ps_table_realloc.exit, %4, %7, %57
  %.040 = phi i32 [ 0, %57 ], [ 6, %7 ], [ 6, %4 ], [ %33, %ps_table_realloc.exit ]
  ret i32 %.040
}